; Function Attrs: nounwind uwtable
define hidden void @zim_SensitiveParameter___construct(ptr nocapture noundef readonly %0, ptr nocapture readnone %1) #0 {
  %3 = getelementptr inbounds i8, ptr %0, i64 44
  %4 = load i32, ptr %3, align 4
  %.not = icmp eq i32 %4, 0
  br i1 %.not, label %6, label %5

5:                                                ; preds = %2
  tail call void @zend_wrong_parameters_none_error() #16
  br label %6

6:                                                ; preds = %2, %5
  ret void
}